; Function Attrs: nofree norecurse nosync nounwind memory(argmem: readwrite) uwtable
define hidden void @_mi_strlcat(ptr noundef %0, ptr noundef readonly %1, i64 noundef %2) local_unnamed_addr #2 {
  %4 = icmp eq ptr %0, null
  %5 = icmp eq ptr %1, null
  %6 = icmp eq i64 %2, 0
  %7 = or i1 %4, %6
  %or.cond3 = or i1 %5, %7
  br i1 %or.cond3, label %_mi_strlcpy.exit, label %.preheader

.preheader:                                       ; preds = %3
  %8 = load i8, ptr %0, align 1, !tbaa !3
  %9 = icmp ne i8 %8, 0
  %10 = icmp ugt i64 %2, 1
  %11 = and i1 %9, %10
  br i1 %11, label %.lr.ph, label %.preheader.i

.lr.ph:                                           ; preds = %.preheader, %.lr.ph
  %.017 = phi i64 [ %13, %.lr.ph ], [ %2, %.preheader ]
  %.01216 = phi ptr [ %12, %.lr.ph ], [ %0, %.preheader ]
  %12 = getelementptr inbounds nuw i8, ptr %.01216, i64 1
  %13 = add i64 %.017, -1
  %14 = load i8, ptr %12, align 1, !tbaa !3
  %15 = icmp ne i8 %14, 0
  %16 = icmp ugt i64 %13, 1
  %17 = select i1 %15, i1 %16, i1 false
  br i1 %17, label %.lr.ph, label %.preheader.i, !llvm.loop !9

.preheader.i:                                     ; preds = %.lr.ph, %.preheader
  %.012.lcssa = phi ptr [ %0, %.preheader ], [ %12, %.lr.ph ]
  %.0.lcssa = phi i64 [ %2, %.preheader ], [ %13, %.lr.ph ]
  %.lcssa15 = phi i1 [ %10, %.preheader ], [ %16, %.lr.ph ]
  %18 = load i8, ptr %1, align 1, !tbaa !3
  %19 = icmp ne i8 %18, 0
  %20 = and i1 %.lcssa15, %19
  br i1 %20, label %.lr.ph.i, label %._crit_edge.i

.lr.ph.i:                                         ; preds = %.preheader.i, %.lr.ph.i
  %21 = phi i8 [ %25, %.lr.ph.i ], [ %18, %.preheader.i ]
  %.018.i = phi i64 [ %24, %.lr.ph.i ], [ %.0.lcssa, %.preheader.i ]
  %.01117.i = phi ptr [ %22, %.lr.ph.i ], [ %1, %.preheader.i ]
  %.01216.i = phi ptr [ %23, %.lr.ph.i ], [ %.012.lcssa, %.preheader.i ]
  %22 = getelementptr inbounds nuw i8, ptr %.01117.i, i64 1
  %23 = getelementptr inbounds nuw i8, ptr %.01216.i, i64 1
  store i8 %21, ptr %.01216.i, align 1, !tbaa !3
  %24 = add i64 %.018.i, -1
  %25 = load i8, ptr %22, align 1, !tbaa !3
  %26 = icmp ne i8 %25, 0
  %27 = icmp ugt i64 %24, 1
  %28 = select i1 %26, i1 %27, i1 false
  br i1 %28, label %.lr.ph.i, label %._crit_edge.i, !llvm.loop !8

._crit_edge.i:                                    ; preds = %.lr.ph.i, %.preheader.i
  %.012.lcssa.i = phi ptr [ %.012.lcssa, %.preheader.i ], [ %23, %.lr.ph.i ]
  store i8 0, ptr %.012.lcssa.i, align 1, !tbaa !3
  br label %_mi_strlcpy.exit

_mi_strlcpy.exit:                                 ; preds = %._crit_edge.i, %3
  ret void
}